
/test/samples/vsx_mem.c.power9_gcc-7.o:     file format elf64-powerpcle


Disassembly of section .text:

0000000000000000 <INTRIN_schar>:
   0:	00 00 26 2c 	cmpdi   r6,0
   4:	20 00 82 4d 	beqlr   
   8:	00 00 20 39 	li      r9,0
   c:	00 00 00 60 	nop
  10:	19 4a 04 7c 	lxvx    vs32,r4,r9
  14:	19 4a 25 7c 	lxvx    vs33,r5,r9
  18:	00 08 00 10 	vaddubm v0,v0,v1
  1c:	19 4b 03 7c 	stxvx   vs32,r3,r9
  20:	10 00 29 39 	addi    r9,r9,16
  24:	40 48 a6 7f 	cmpld   cr7,r6,r9
  28:	20 00 9d 4c 	blelr   cr7
  2c:	19 4a 04 7c 	lxvx    vs32,r4,r9
  30:	19 4a 25 7c 	lxvx    vs33,r5,r9
  34:	00 08 00 10 	vaddubm v0,v0,v1
  38:	19 4b 03 7c 	stxvx   vs32,r3,r9
  3c:	10 00 29 39 	addi    r9,r9,16
  40:	40 48 a6 7f 	cmpld   cr7,r6,r9
  44:	cc ff 9d 41 	bgt     cr7,10 <INTRIN_schar+0x10>
  48:	20 00 80 4e 	blr
	...
  58:	00 00 00 60 	nop
  5c:	00 00 00 60 	nop

0000000000000060 <INTRIN_short>:
  60:	00 00 26 2c 	cmpdi   r6,0
  64:	20 00 82 4d 	beqlr   
  68:	ff ff 26 39 	addi    r9,r6,-1
  6c:	02 e9 29 79 	rldicl  r9,r9,61,4
  70:	01 00 29 39 	addi    r9,r9,1
  74:	a6 03 29 7d 	mtctr   r9
  78:	00 00 00 60 	nop
  7c:	00 00 00 60 	nop
  80:	09 00 04 f4 	lxv     vs32,0(r4)
  84:	09 00 25 f4 	lxv     vs33,0(r5)
  88:	10 00 84 38 	addi    r4,r4,16
  8c:	10 00 a5 38 	addi    r5,r5,16
  90:	10 00 63 38 	addi    r3,r3,16
  94:	40 08 00 10 	vadduhm v0,v0,v1
  98:	fd ff 03 f4 	stxv    vs32,-16(r3)
  9c:	e4 ff 00 42 	bdnz    80 <INTRIN_short+0x20>
  a0:	20 00 80 4e 	blr
	...

00000000000000b0 <INTRIN_int>:
  b0:	00 00 26 2c 	cmpdi   r6,0
  b4:	20 00 82 4d 	beqlr   
  b8:	ff ff 26 39 	addi    r9,r6,-1
  bc:	02 f1 29 79 	rldicl  r9,r9,62,4
  c0:	01 00 29 39 	addi    r9,r9,1
  c4:	a6 03 29 7d 	mtctr   r9
  c8:	18 00 00 48 	b       e0 <INTRIN_int+0x30>
  cc:	00 00 00 60 	nop
  d0:	00 00 00 60 	nop
  d4:	00 00 00 60 	nop
  d8:	00 00 00 60 	nop
  dc:	00 00 00 60 	nop
  e0:	09 00 04 f4 	lxv     vs32,0(r4)
  e4:	09 00 25 f4 	lxv     vs33,0(r5)
  e8:	10 00 84 38 	addi    r4,r4,16
  ec:	10 00 a5 38 	addi    r5,r5,16
  f0:	10 00 63 38 	addi    r3,r3,16
  f4:	80 08 00 10 	vadduwm v0,v0,v1
  f8:	fd ff 03 f4 	stxv    vs32,-16(r3)
  fc:	e4 ff 00 42 	bdnz    e0 <INTRIN_int+0x30>
 100:	20 00 80 4e 	blr
	...

0000000000000110 <INTRIN_double>:
 110:	00 00 26 2c 	cmpdi   r6,0
 114:	20 00 82 4d 	beqlr   
 118:	ff ff 26 39 	addi    r9,r6,-1
 11c:	02 f9 29 79 	rldicl  r9,r9,63,4
 120:	01 00 29 39 	addi    r9,r9,1
 124:	a6 03 29 7d 	mtctr   r9
 128:	18 00 00 48 	b       140 <INTRIN_double+0x30>
 12c:	00 00 00 60 	nop
 130:	00 00 00 60 	nop
 134:	00 00 00 60 	nop
 138:	00 00 00 60 	nop
 13c:	00 00 00 60 	nop
 140:	01 00 04 f4 	lxv     vs0,0(r4)
 144:	01 00 85 f5 	lxv     vs12,0(r5)
 148:	10 00 84 38 	addi    r4,r4,16
 14c:	10 00 a5 38 	addi    r5,r5,16
 150:	10 00 63 38 	addi    r3,r3,16
 154:	00 63 00 f0 	xvadddp vs0,vs0,vs12
 158:	f5 ff 03 f4 	stxv    vs0,-16(r3)
 15c:	e4 ff 00 42 	bdnz    140 <INTRIN_double+0x30>
 160:	20 00 80 4e 	blr
	...

0000000000000170 <DEREF_schar>:
 170:	00 00 26 2c 	cmpdi   r6,0
 174:	20 00 82 4d 	beqlr   
 178:	00 00 20 39 	li      r9,0
 17c:	00 00 00 60 	nop
 180:	19 4a 04 7c 	lxvx    vs32,r4,r9
 184:	19 4a 25 7c 	lxvx    vs33,r5,r9
 188:	00 08 00 10 	vaddubm v0,v0,v1
 18c:	19 4b 03 7c 	stxvx   vs32,r3,r9
 190:	10 00 29 39 	addi    r9,r9,16
 194:	40 48 a6 7f 	cmpld   cr7,r6,r9
 198:	20 00 9d 4c 	blelr   cr7
 19c:	19 4a 04 7c 	lxvx    vs32,r4,r9
 1a0:	19 4a 25 7c 	lxvx    vs33,r5,r9
 1a4:	00 08 00 10 	vaddubm v0,v0,v1
 1a8:	19 4b 03 7c 	stxvx   vs32,r3,r9
 1ac:	10 00 29 39 	addi    r9,r9,16
 1b0:	40 48 a6 7f 	cmpld   cr7,r6,r9
 1b4:	cc ff 9d 41 	bgt     cr7,180 <DEREF_schar+0x10>
 1b8:	20 00 80 4e 	blr
	...
 1c8:	00 00 00 60 	nop
 1cc:	00 00 00 60 	nop

00000000000001d0 <DEREF_short>:
 1d0:	00 00 26 2c 	cmpdi   r6,0
 1d4:	20 00 82 4d 	beqlr   
 1d8:	ff ff c6 38 	addi    r6,r6,-1
 1dc:	00 00 20 39 	li      r9,0
 1e0:	02 e9 c6 78 	rldicl  r6,r6,61,4
 1e4:	01 00 46 39 	addi    r10,r6,1
 1e8:	a6 03 49 7d 	mtctr   r10
 1ec:	14 00 00 48 	b       200 <DEREF_short+0x30>
 1f0:	00 00 00 60 	nop
 1f4:	00 00 00 60 	nop
 1f8:	00 00 00 60 	nop
 1fc:	00 00 00 60 	nop
 200:	19 4a 04 7c 	lxvx    vs32,r4,r9
 204:	19 4a 25 7c 	lxvx    vs33,r5,r9
 208:	40 08 00 10 	vadduhm v0,v0,v1
 20c:	19 4b 03 7c 	stxvx   vs32,r3,r9
 210:	10 00 29 39 	addi    r9,r9,16
 214:	ec ff 00 42 	bdnz    200 <DEREF_short+0x30>
 218:	20 00 80 4e 	blr
	...
 228:	00 00 00 60 	nop
 22c:	00 00 00 60 	nop

0000000000000230 <DEREF_int>:
 230:	00 00 26 2c 	cmpdi   r6,0
 234:	20 00 82 4d 	beqlr   
 238:	ff ff c6 38 	addi    r6,r6,-1
 23c:	00 00 20 39 	li      r9,0
 240:	02 f1 c6 78 	rldicl  r6,r6,62,4
 244:	01 00 46 39 	addi    r10,r6,1
 248:	a6 03 49 7d 	mtctr   r10
 24c:	14 00 00 48 	b       260 <DEREF_int+0x30>
 250:	00 00 00 60 	nop
 254:	00 00 00 60 	nop
 258:	00 00 00 60 	nop
 25c:	00 00 00 60 	nop
 260:	19 4a 04 7c 	lxvx    vs32,r4,r9
 264:	19 4a 25 7c 	lxvx    vs33,r5,r9
 268:	80 08 00 10 	vadduwm v0,v0,v1
 26c:	19 4b 03 7c 	stxvx   vs32,r3,r9
 270:	10 00 29 39 	addi    r9,r9,16
 274:	ec ff 00 42 	bdnz    260 <DEREF_int+0x30>
 278:	20 00 80 4e 	blr
	...
 288:	00 00 00 60 	nop
 28c:	00 00 00 60 	nop

0000000000000290 <DEREF_double>:
 290:	00 00 26 2c 	cmpdi   r6,0
 294:	20 00 82 4d 	beqlr   
 298:	ff ff c6 38 	addi    r6,r6,-1
 29c:	00 00 20 39 	li      r9,0
 2a0:	02 f9 c6 78 	rldicl  r6,r6,63,4
 2a4:	01 00 46 39 	addi    r10,r6,1
 2a8:	a6 03 49 7d 	mtctr   r10
 2ac:	14 00 00 48 	b       2c0 <DEREF_double+0x30>
 2b0:	00 00 00 60 	nop
 2b4:	00 00 00 60 	nop
 2b8:	00 00 00 60 	nop
 2bc:	00 00 00 60 	nop
 2c0:	18 4a 04 7c 	lxvx    vs0,r4,r9
 2c4:	18 4a 85 7d 	lxvx    vs12,r5,r9
 2c8:	00 63 00 f0 	xvadddp vs0,vs0,vs12
 2cc:	18 4b 03 7c 	stxvx   vs0,r3,r9
 2d0:	10 00 29 39 	addi    r9,r9,16
 2d4:	ec ff 00 42 	bdnz    2c0 <DEREF_double+0x30>
 2d8:	20 00 80 4e 	blr
	...
