
/test/samples/vsx_mem.c.power9_clang-8.o:     file format elf64-powerpcle


Disassembly of section .text:

0000000000000000 <INTRIN_ushort>:
   0:	00 00 26 28 	cmpldi  r6,0
   4:	20 00 82 4d 	beqlr   
   8:	a4 0f c7 78 	rldicr  r7,r6,1,62
   c:	14 3a 63 7c 	add     r3,r3,r7
  10:	00 00 e0 38 	li      r7,0
  14:	00 00 00 60 	nop
  18:	00 00 00 60 	nop
  1c:	00 00 00 60 	nop
  20:	09 00 44 f4 	lxv     vs34,0(r4)
  24:	09 00 65 f4 	lxv     vs35,0(r5)
  28:	08 00 e7 38 	addi    r7,r7,8
  2c:	40 30 27 7c 	cmpld   r7,r6
  30:	40 10 43 10 	vadduhm v2,v3,v2
  34:	10 00 a5 38 	addi    r5,r5,16
  38:	10 00 84 38 	addi    r4,r4,16
  3c:	0d 00 43 f4 	stxv    vs34,0(r3)
  40:	e0 ff 80 41 	blt     20 <INTRIN_ushort+0x20>
  44:	20 00 80 4e 	blr
	...
  54:	00 00 00 60 	nop
  58:	00 00 00 60 	nop
  5c:	00 00 00 60 	nop

0000000000000060 <INTRIN_short>:
  60:	00 00 26 28 	cmpldi  r6,0
  64:	20 00 82 4d 	beqlr   
  68:	a4 0f c7 78 	rldicr  r7,r6,1,62
  6c:	14 3a 63 7c 	add     r3,r3,r7
  70:	00 00 e0 38 	li      r7,0
  74:	00 00 00 60 	nop
  78:	00 00 00 60 	nop
  7c:	00 00 00 60 	nop
  80:	09 00 44 f4 	lxv     vs34,0(r4)
  84:	09 00 65 f4 	lxv     vs35,0(r5)
  88:	08 00 e7 38 	addi    r7,r7,8
  8c:	40 30 27 7c 	cmpld   r7,r6
  90:	40 10 43 10 	vadduhm v2,v3,v2
  94:	10 00 a5 38 	addi    r5,r5,16
  98:	10 00 84 38 	addi    r4,r4,16
  9c:	0d 00 43 f4 	stxv    vs34,0(r3)
  a0:	e0 ff 80 41 	blt     80 <INTRIN_short+0x20>
  a4:	20 00 80 4e 	blr
	...
  b4:	00 00 00 60 	nop
  b8:	00 00 00 60 	nop
  bc:	00 00 00 60 	nop

00000000000000c0 <INTRIN_uint>:
  c0:	00 00 26 28 	cmpldi  r6,0
  c4:	20 00 82 4d 	beqlr   
  c8:	64 17 c7 78 	rldicr  r7,r6,2,61
  cc:	14 3a 63 7c 	add     r3,r3,r7
  d0:	00 00 e0 38 	li      r7,0
  d4:	00 00 00 60 	nop
  d8:	00 00 00 60 	nop
  dc:	00 00 00 60 	nop
  e0:	09 00 44 f4 	lxv     vs34,0(r4)
  e4:	09 00 65 f4 	lxv     vs35,0(r5)
  e8:	04 00 e7 38 	addi    r7,r7,4
  ec:	40 30 27 7c 	cmpld   r7,r6
  f0:	80 10 43 10 	vadduwm v2,v3,v2
  f4:	10 00 a5 38 	addi    r5,r5,16
  f8:	10 00 84 38 	addi    r4,r4,16
  fc:	0d 00 43 f4 	stxv    vs34,0(r3)
 100:	e0 ff 80 41 	blt     e0 <INTRIN_uint+0x20>
 104:	20 00 80 4e 	blr
	...
 114:	00 00 00 60 	nop
 118:	00 00 00 60 	nop
 11c:	00 00 00 60 	nop

0000000000000120 <INTRIN_int>:
 120:	00 00 26 28 	cmpldi  r6,0
 124:	20 00 82 4d 	beqlr   
 128:	64 17 c7 78 	rldicr  r7,r6,2,61
 12c:	14 3a 63 7c 	add     r3,r3,r7
 130:	00 00 e0 38 	li      r7,0
 134:	00 00 00 60 	nop
 138:	00 00 00 60 	nop
 13c:	00 00 00 60 	nop
 140:	09 00 44 f4 	lxv     vs34,0(r4)
 144:	09 00 65 f4 	lxv     vs35,0(r5)
 148:	04 00 e7 38 	addi    r7,r7,4
 14c:	40 30 27 7c 	cmpld   r7,r6
 150:	80 10 43 10 	vadduwm v2,v3,v2
 154:	10 00 a5 38 	addi    r5,r5,16
 158:	10 00 84 38 	addi    r4,r4,16
 15c:	0d 00 43 f4 	stxv    vs34,0(r3)
 160:	e0 ff 80 41 	blt     140 <INTRIN_int+0x20>
 164:	20 00 80 4e 	blr
	...
 174:	00 00 00 60 	nop
 178:	00 00 00 60 	nop
 17c:	00 00 00 60 	nop

0000000000000180 <DEREF_ushort>:
 180:	00 00 26 28 	cmpldi  r6,0
 184:	20 00 82 4d 	beqlr   
 188:	a4 0f c7 78 	rldicr  r7,r6,1,62
 18c:	14 3a 63 7c 	add     r3,r3,r7
 190:	00 00 e0 38 	li      r7,0
 194:	00 00 00 60 	nop
 198:	00 00 00 60 	nop
 19c:	00 00 00 60 	nop
 1a0:	09 00 44 f4 	lxv     vs34,0(r4)
 1a4:	09 00 65 f4 	lxv     vs35,0(r5)
 1a8:	08 00 e7 38 	addi    r7,r7,8
 1ac:	40 30 27 7c 	cmpld   r7,r6
 1b0:	40 10 43 10 	vadduhm v2,v3,v2
 1b4:	10 00 a5 38 	addi    r5,r5,16
 1b8:	10 00 84 38 	addi    r4,r4,16
 1bc:	0d 00 43 f4 	stxv    vs34,0(r3)
 1c0:	e0 ff 80 41 	blt     1a0 <DEREF_ushort+0x20>
 1c4:	20 00 80 4e 	blr
	...
 1d4:	00 00 00 60 	nop
 1d8:	00 00 00 60 	nop
 1dc:	00 00 00 60 	nop

00000000000001e0 <DEREF_short>:
 1e0:	00 00 26 28 	cmpldi  r6,0
 1e4:	20 00 82 4d 	beqlr   
 1e8:	a4 0f c7 78 	rldicr  r7,r6,1,62
 1ec:	14 3a 63 7c 	add     r3,r3,r7
 1f0:	00 00 e0 38 	li      r7,0
 1f4:	00 00 00 60 	nop
 1f8:	00 00 00 60 	nop
 1fc:	00 00 00 60 	nop
 200:	09 00 44 f4 	lxv     vs34,0(r4)
 204:	09 00 65 f4 	lxv     vs35,0(r5)
 208:	08 00 e7 38 	addi    r7,r7,8
 20c:	40 30 27 7c 	cmpld   r7,r6
 210:	40 10 43 10 	vadduhm v2,v3,v2
 214:	10 00 a5 38 	addi    r5,r5,16
 218:	10 00 84 38 	addi    r4,r4,16
 21c:	0d 00 43 f4 	stxv    vs34,0(r3)
 220:	e0 ff 80 41 	blt     200 <DEREF_short+0x20>
 224:	20 00 80 4e 	blr
	...
 234:	00 00 00 60 	nop
 238:	00 00 00 60 	nop
 23c:	00 00 00 60 	nop

0000000000000240 <DEREF_uint>:
 240:	00 00 26 28 	cmpldi  r6,0
 244:	20 00 82 4d 	beqlr   
 248:	64 17 c7 78 	rldicr  r7,r6,2,61
 24c:	14 3a 63 7c 	add     r3,r3,r7
 250:	00 00 e0 38 	li      r7,0
 254:	00 00 00 60 	nop
 258:	00 00 00 60 	nop
 25c:	00 00 00 60 	nop
 260:	09 00 44 f4 	lxv     vs34,0(r4)
 264:	09 00 65 f4 	lxv     vs35,0(r5)
 268:	04 00 e7 38 	addi    r7,r7,4
 26c:	40 30 27 7c 	cmpld   r7,r6
 270:	80 10 43 10 	vadduwm v2,v3,v2
 274:	10 00 a5 38 	addi    r5,r5,16
 278:	10 00 84 38 	addi    r4,r4,16
 27c:	0d 00 43 f4 	stxv    vs34,0(r3)
 280:	e0 ff 80 41 	blt     260 <DEREF_uint+0x20>
 284:	20 00 80 4e 	blr
	...
 294:	00 00 00 60 	nop
 298:	00 00 00 60 	nop
 29c:	00 00 00 60 	nop

00000000000002a0 <DEREF_int>:
 2a0:	00 00 26 28 	cmpldi  r6,0
 2a4:	20 00 82 4d 	beqlr   
 2a8:	64 17 c7 78 	rldicr  r7,r6,2,61
 2ac:	14 3a 63 7c 	add     r3,r3,r7
 2b0:	00 00 e0 38 	li      r7,0
 2b4:	00 00 00 60 	nop
 2b8:	00 00 00 60 	nop
 2bc:	00 00 00 60 	nop
 2c0:	09 00 44 f4 	lxv     vs34,0(r4)
 2c4:	09 00 65 f4 	lxv     vs35,0(r5)
 2c8:	04 00 e7 38 	addi    r7,r7,4
 2cc:	40 30 27 7c 	cmpld   r7,r6
 2d0:	80 10 43 10 	vadduwm v2,v3,v2
 2d4:	10 00 a5 38 	addi    r5,r5,16
 2d8:	10 00 84 38 	addi    r4,r4,16
 2dc:	0d 00 43 f4 	stxv    vs34,0(r3)
 2e0:	e0 ff 80 41 	blt     2c0 <DEREF_int+0x20>
 2e4:	20 00 80 4e 	blr
	...
